; Function Attrs: nounwind uwtable
define internal void @SDL_FreeProperty(ptr readnone captures(none) %0, ptr noundef %1, ptr noundef %2) #0 {
  %.not.i = icmp eq ptr %2, null
  br i1 %.not.i, label %SDL_FreePropertyWithCleanup.exit, label %4

4:                                                ; preds = %3
  %5 = load i32, ptr %2, align 8
  switch i32 %5, label %17 [
    i32 1, label %6
    i32 2, label %14
  ]

6:                                                ; preds = %4
  %7 = getelementptr inbounds nuw i8, ptr %2, i64 24
  %8 = load ptr, ptr %7, align 8
  %.not = icmp eq ptr %8, null
  br i1 %.not, label %17, label %9

9:                                                ; preds = %6
  %10 = getelementptr inbounds nuw i8, ptr %2, i64 32
  %11 = load ptr, ptr %10, align 8
  %12 = getelementptr inbounds nuw i8, ptr %2, i64 8
  %13 = load ptr, ptr %12, align 8
  tail call void %8(ptr noundef %11, ptr noundef %13) #6
  br label %17

14:                                               ; preds = %4
  %15 = getelementptr inbounds nuw i8, ptr %2, i64 8
  %16 = load ptr, ptr %15, align 8
  tail call void @SDL_free_REAL(ptr noundef %16) #6
  br label %17

17:                                               ; preds = %14, %9, %6, %4
  %18 = getelementptr inbounds nuw i8, ptr %2, i64 16
  %19 = load ptr, ptr %18, align 8
  tail call void @SDL_free_REAL(ptr noundef %19) #6
  br label %SDL_FreePropertyWithCleanup.exit

SDL_FreePropertyWithCleanup.exit:                 ; preds = %3, %17
  tail call void @SDL_free_REAL(ptr noundef %1) #6
  tail call void @SDL_free_REAL(ptr noundef %2) #6
  ret void
}